target datalayout = "e-m:e-p270:32:32-p271:32:32-p272:64:64-i64:64-i128:128-f80:128-n8:16:32:64-S128"
target triple = "x86_64-pc-linux-gnu"

; Function Attrs: nounwind uwtable
define internal void @inv_predict_11(ptr noundef %0, ptr noundef %1, ptr noundef %2, ptr noundef %3, ptr noundef %4) #1 {
  %6 = alloca ptr, align 8
  %7 = alloca ptr, align 8
  %8 = alloca ptr, align 8
  %9 = alloca ptr, align 8
  %10 = alloca ptr, align 8
  %11 = alloca i32, align 4
  store ptr %0, ptr %6, align 8, !tbaa !82
  store ptr %1, ptr %7, align 8, !tbaa !82
  store ptr %2, ptr %8, align 8, !tbaa !82
  store ptr %3, ptr %9, align 8, !tbaa !82
  store ptr %4, ptr %10, align 8, !tbaa !82
  call void @llvm.lifetime.start.p0(i64 4, ptr %11) #11
  %12 = load ptr, ptr %7, align 8, !tbaa !82
  %13 = getelementptr inbounds i8, ptr %12, i64 0
  %14 = load i8, ptr %13, align 1, !tbaa !76
  %15 = zext i8 %14 to i32
  %16 = load ptr, ptr %8, align 8, !tbaa !82
  %17 = getelementptr inbounds i8, ptr %16, i64 0
  %18 = load i8, ptr %17, align 1, !tbaa !76
  %19 = zext i8 %18 to i32
  %20 = sub nsw i32 %15, %19
  %21 = icmp sge i32 %20, 0
  br i1 %21, label %22, label %32

22:                                               ; preds = %5
  %23 = load ptr, ptr %7, align 8, !tbaa !82
  %24 = getelementptr inbounds i8, ptr %23, i64 0
  %25 = load i8, ptr %24, align 1, !tbaa !76
  %26 = zext i8 %25 to i32
  %27 = load ptr, ptr %8, align 8, !tbaa !82
  %28 = getelementptr inbounds i8, ptr %27, i64 0
  %29 = load i8, ptr %28, align 1, !tbaa !76
  %30 = zext i8 %29 to i32
  %31 = sub nsw i32 %26, %30
  br label %43

32:                                               ; preds = %5
  %33 = load ptr, ptr %7, align 8, !tbaa !82
  %34 = getelementptr inbounds i8, ptr %33, i64 0
  %35 = load i8, ptr %34, align 1, !tbaa !76
  %36 = zext i8 %35 to i32
  %37 = load ptr, ptr %8, align 8, !tbaa !82
  %38 = getelementptr inbounds i8, ptr %37, i64 0
  %39 = load i8, ptr %38, align 1, !tbaa !76
  %40 = zext i8 %39 to i32
  %41 = sub nsw i32 %36, %40
  %42 = sub nsw i32 0, %41
  br label %43

43:                                               ; preds = %32, %22
  %44 = phi i32 [ %31, %22 ], [ %42, %32 ]
  %45 = load ptr, ptr %9, align 8, !tbaa !82
  %46 = getelementptr inbounds i8, ptr %45, i64 0
  %47 = load i8, ptr %46, align 1, !tbaa !76
  %48 = zext i8 %47 to i32
  %49 = load ptr, ptr %8, align 8, !tbaa !82
  %50 = getelementptr inbounds i8, ptr %49, i64 0
  %51 = load i8, ptr %50, align 1, !tbaa !76
  %52 = zext i8 %51 to i32
  %53 = sub nsw i32 %48, %52
  %54 = icmp sge i32 %53, 0
  br i1 %54, label %55, label %65

55:                                               ; preds = %43
  %56 = load ptr, ptr %9, align 8, !tbaa !82
  %57 = getelementptr inbounds i8, ptr %56, i64 0
  %58 = load i8, ptr %57, align 1, !tbaa !76
  %59 = zext i8 %58 to i32
  %60 = load ptr, ptr %8, align 8, !tbaa !82
  %61 = getelementptr inbounds i8, ptr %60, i64 0
  %62 = load i8, ptr %61, align 1, !tbaa !76
  %63 = zext i8 %62 to i32
  %64 = sub nsw i32 %59, %63
  br label %76

65:                                               ; preds = %43
  %66 = load ptr, ptr %9, align 8, !tbaa !82
  %67 = getelementptr inbounds i8, ptr %66, i64 0
  %68 = load i8, ptr %67, align 1, !tbaa !76
  %69 = zext i8 %68 to i32
  %70 = load ptr, ptr %8, align 8, !tbaa !82
  %71 = getelementptr inbounds i8, ptr %70, i64 0
  %72 = load i8, ptr %71, align 1, !tbaa !76
  %73 = zext i8 %72 to i32
  %74 = sub nsw i32 %69, %73
  %75 = sub nsw i32 0, %74
  br label %76

76:                                               ; preds = %65, %55
  %77 = phi i32 [ %64, %55 ], [ %75, %65 ]
  %78 = sub nsw i32 %44, %77
  %79 = load ptr, ptr %7, align 8, !tbaa !82
  %80 = getelementptr inbounds i8, ptr %79, i64 1
  %81 = load i8, ptr %80, align 1, !tbaa !76
  %82 = zext i8 %81 to i32
  %83 = load ptr, ptr %8, align 8, !tbaa !82
  %84 = getelementptr inbounds i8, ptr %83, i64 1
  %85 = load i8, ptr %84, align 1, !tbaa !76
  %86 = zext i8 %85 to i32
  %87 = sub nsw i32 %82, %86
  %88 = icmp sge i32 %87, 0
  br i1 %88, label %89, label %99

89:                                               ; preds = %76
  %90 = load ptr, ptr %7, align 8, !tbaa !82
  %91 = getelementptr inbounds i8, ptr %90, i64 1
  %92 = load i8, ptr %91, align 1, !tbaa !76
  %93 = zext i8 %92 to i32
  %94 = load ptr, ptr %8, align 8, !tbaa !82
  %95 = getelementptr inbounds i8, ptr %94, i64 1
  %96 = load i8, ptr %95, align 1, !tbaa !76
  %97 = zext i8 %96 to i32
  %98 = sub nsw i32 %93, %97
  br label %110

99:                                               ; preds = %76
  %100 = load ptr, ptr %7, align 8, !tbaa !82
  %101 = getelementptr inbounds i8, ptr %100, i64 1
  %102 = load i8, ptr %101, align 1, !tbaa !76
  %103 = zext i8 %102 to i32
  %104 = load ptr, ptr %8, align 8, !tbaa !82
  %105 = getelementptr inbounds i8, ptr %104, i64 1
  %106 = load i8, ptr %105, align 1, !tbaa !76
  %107 = zext i8 %106 to i32
  %108 = sub nsw i32 %103, %107
  %109 = sub nsw i32 0, %108
  br label %110

110:                                              ; preds = %99, %89
  %111 = phi i32 [ %98, %89 ], [ %109, %99 ]
  %112 = load ptr, ptr %9, align 8, !tbaa !82
  %113 = getelementptr inbounds i8, ptr %112, i64 1
  %114 = load i8, ptr %113, align 1, !tbaa !76
  %115 = zext i8 %114 to i32
  %116 = load ptr, ptr %8, align 8, !tbaa !82
  %117 = getelementptr inbounds i8, ptr %116, i64 1
  %118 = load i8, ptr %117, align 1, !tbaa !76
  %119 = zext i8 %118 to i32
  %120 = sub nsw i32 %115, %119
  %121 = icmp sge i32 %120, 0
  br i1 %121, label %122, label %132

122:                                              ; preds = %110
  %123 = load ptr, ptr %9, align 8, !tbaa !82
  %124 = getelementptr inbounds i8, ptr %123, i64 1
  %125 = load i8, ptr %124, align 1, !tbaa !76
  %126 = zext i8 %125 to i32
  %127 = load ptr, ptr %8, align 8, !tbaa !82
  %128 = getelementptr inbounds i8, ptr %127, i64 1
  %129 = load i8, ptr %128, align 1, !tbaa !76
  %130 = zext i8 %129 to i32
  %131 = sub nsw i32 %126, %130
  br label %143

132:                                              ; preds = %110
  %133 = load ptr, ptr %9, align 8, !tbaa !82
  %134 = getelementptr inbounds i8, ptr %133, i64 1
  %135 = load i8, ptr %134, align 1, !tbaa !76
  %136 = zext i8 %135 to i32
  %137 = load ptr, ptr %8, align 8, !tbaa !82
  %138 = getelementptr inbounds i8, ptr %137, i64 1
  %139 = load i8, ptr %138, align 1, !tbaa !76
  %140 = zext i8 %139 to i32
  %141 = sub nsw i32 %136, %140
  %142 = sub nsw i32 0, %141
  br label %143

143:                                              ; preds = %132, %122
  %144 = phi i32 [ %131, %122 ], [ %142, %132 ]
  %145 = sub nsw i32 %111, %144
  %146 = add nsw i32 %78, %145
  %147 = load ptr, ptr %7, align 8, !tbaa !82
  %148 = getelementptr inbounds i8, ptr %147, i64 2
  %149 = load i8, ptr %148, align 1, !tbaa !76
  %150 = zext i8 %149 to i32
  %151 = load ptr, ptr %8, align 8, !tbaa !82
  %152 = getelementptr inbounds i8, ptr %151, i64 2
  %153 = load i8, ptr %152, align 1, !tbaa !76
  %154 = zext i8 %153 to i32
  %155 = sub nsw i32 %150, %154
  %156 = icmp sge i32 %155, 0
  br i1 %156, label %157, label %167

157:                                              ; preds = %143
  %158 = load ptr, ptr %7, align 8, !tbaa !82
  %159 = getelementptr inbounds i8, ptr %158, i64 2
  %160 = load i8, ptr %159, align 1, !tbaa !76
  %161 = zext i8 %160 to i32
  %162 = load ptr, ptr %8, align 8, !tbaa !82
  %163 = getelementptr inbounds i8, ptr %162, i64 2
  %164 = load i8, ptr %163, align 1, !tbaa !76
  %165 = zext i8 %164 to i32
  %166 = sub nsw i32 %161, %165
  br label %178

167:                                              ; preds = %143
  %168 = load ptr, ptr %7, align 8, !tbaa !82
  %169 = getelementptr inbounds i8, ptr %168, i64 2
  %170 = load i8, ptr %169, align 1, !tbaa !76
  %171 = zext i8 %170 to i32
  %172 = load ptr, ptr %8, align 8, !tbaa !82
  %173 = getelementptr inbounds i8, ptr %172, i64 2
  %174 = load i8, ptr %173, align 1, !tbaa !76
  %175 = zext i8 %174 to i32
  %176 = sub nsw i32 %171, %175
  %177 = sub nsw i32 0, %176
  br label %178

178:                                              ; preds = %167, %157
  %179 = phi i32 [ %166, %157 ], [ %177, %167 ]
  %180 = load ptr, ptr %9, align 8, !tbaa !82
  %181 = getelementptr inbounds i8, ptr %180, i64 2
  %182 = load i8, ptr %181, align 1, !tbaa !76
  %183 = zext i8 %182 to i32
  %184 = load ptr, ptr %8, align 8, !tbaa !82
  %185 = getelementptr inbounds i8, ptr %184, i64 2
  %186 = load i8, ptr %185, align 1, !tbaa !76
  %187 = zext i8 %186 to i32
  %188 = sub nsw i32 %183, %187
  %189 = icmp sge i32 %188, 0
  br i1 %189, label %190, label %200

190:                                              ; preds = %178
  %191 = load ptr, ptr %9, align 8, !tbaa !82
  %192 = getelementptr inbounds i8, ptr %191, i64 2
  %193 = load i8, ptr %192, align 1, !tbaa !76
  %194 = zext i8 %193 to i32
  %195 = load ptr, ptr %8, align 8, !tbaa !82
  %196 = getelementptr inbounds i8, ptr %195, i64 2
  %197 = load i8, ptr %196, align 1, !tbaa !76
  %198 = zext i8 %197 to i32
  %199 = sub nsw i32 %194, %198
  br label %211

200:                                              ; preds = %178
  %201 = load ptr, ptr %9, align 8, !tbaa !82
  %202 = getelementptr inbounds i8, ptr %201, i64 2
  %203 = load i8, ptr %202, align 1, !tbaa !76
  %204 = zext i8 %203 to i32
  %205 = load ptr, ptr %8, align 8, !tbaa !82
  %206 = getelementptr inbounds i8, ptr %205, i64 2
  %207 = load i8, ptr %206, align 1, !tbaa !76
  %208 = zext i8 %207 to i32
  %209 = sub nsw i32 %204, %208
  %210 = sub nsw i32 0, %209
  br label %211

211:                                              ; preds = %200, %190
  %212 = phi i32 [ %199, %190 ], [ %210, %200 ]
  %213 = sub nsw i32 %179, %212
  %214 = add nsw i32 %146, %213
  %215 = load ptr, ptr %7, align 8, !tbaa !82
  %216 = getelementptr inbounds i8, ptr %215, i64 3
  %217 = load i8, ptr %216, align 1, !tbaa !76
  %218 = zext i8 %217 to i32
  %219 = load ptr, ptr %8, align 8, !tbaa !82
  %220 = getelementptr inbounds i8, ptr %219, i64 3
  %221 = load i8, ptr %220, align 1, !tbaa !76
  %222 = zext i8 %221 to i32
  %223 = sub nsw i32 %218, %222
  %224 = icmp sge i32 %223, 0
  br i1 %224, label %225, label %235

225:                                              ; preds = %211
  %226 = load ptr, ptr %7, align 8, !tbaa !82
  %227 = getelementptr inbounds i8, ptr %226, i64 3
  %228 = load i8, ptr %227, align 1, !tbaa !76
  %229 = zext i8 %228 to i32
  %230 = load ptr, ptr %8, align 8, !tbaa !82
  %231 = getelementptr inbounds i8, ptr %230, i64 3
  %232 = load i8, ptr %231, align 1, !tbaa !76
  %233 = zext i8 %232 to i32
  %234 = sub nsw i32 %229, %233
  br label %246

235:                                              ; preds = %211
  %236 = load ptr, ptr %7, align 8, !tbaa !82
  %237 = getelementptr inbounds i8, ptr %236, i64 3
  %238 = load i8, ptr %237, align 1, !tbaa !76
  %239 = zext i8 %238 to i32
  %240 = load ptr, ptr %8, align 8, !tbaa !82
  %241 = getelementptr inbounds i8, ptr %240, i64 3
  %242 = load i8, ptr %241, align 1, !tbaa !76
  %243 = zext i8 %242 to i32
  %244 = sub nsw i32 %239, %243
  %245 = sub nsw i32 0, %244
  br label %246

246:                                              ; preds = %235, %225
  %247 = phi i32 [ %234, %225 ], [ %245, %235 ]
  %248 = load ptr, ptr %9, align 8, !tbaa !82
  %249 = getelementptr inbounds i8, ptr %248, i64 3
  %250 = load i8, ptr %249, align 1, !tbaa !76
  %251 = zext i8 %250 to i32
  %252 = load ptr, ptr %8, align 8, !tbaa !82
  %253 = getelementptr inbounds i8, ptr %252, i64 3
  %254 = load i8, ptr %253, align 1, !tbaa !76
  %255 = zext i8 %254 to i32
  %256 = sub nsw i32 %251, %255
  %257 = icmp sge i32 %256, 0
  br i1 %257, label %258, label %268

258:                                              ; preds = %246
  %259 = load ptr, ptr %9, align 8, !tbaa !82
  %260 = getelementptr inbounds i8, ptr %259, i64 3
  %261 = load i8, ptr %260, align 1, !tbaa !76
  %262 = zext i8 %261 to i32
  %263 = load ptr, ptr %8, align 8, !tbaa !82
  %264 = getelementptr inbounds i8, ptr %263, i64 3
  %265 = load i8, ptr %264, align 1, !tbaa !76
  %266 = zext i8 %265 to i32
  %267 = sub nsw i32 %262, %266
  br label %279

268:                                              ; preds = %246
  %269 = load ptr, ptr %9, align 8, !tbaa !82
  %270 = getelementptr inbounds i8, ptr %269, i64 3
  %271 = load i8, ptr %270, align 1, !tbaa !76
  %272 = zext i8 %271 to i32
  %273 = load ptr, ptr %8, align 8, !tbaa !82
  %274 = getelementptr inbounds i8, ptr %273, i64 3
  %275 = load i8, ptr %274, align 1, !tbaa !76
  %276 = zext i8 %275 to i32
  %277 = sub nsw i32 %272, %276
  %278 = sub nsw i32 0, %277
  br label %279

279:                                              ; preds = %268, %258
  %280 = phi i32 [ %267, %258 ], [ %278, %268 ]
  %281 = sub nsw i32 %247, %280
  %282 = add nsw i32 %214, %281
  store i32 %282, ptr %11, align 4, !tbaa !55
  %283 = load i32, ptr %11, align 4, !tbaa !55
  %284 = icmp sle i32 %283, 0
  br i1 %284, label %285, label %289

285:                                              ; preds = %279
  %286 = load ptr, ptr %9, align 8, !tbaa !82
  %287 = load i32, ptr %286, align 4, !tbaa !76
  %288 = load ptr, ptr %6, align 8, !tbaa !82
  store i32 %287, ptr %288, align 4, !tbaa !76
  br label %293

289:                                              ; preds = %279
  %290 = load ptr, ptr %7, align 8, !tbaa !82
  %291 = load i32, ptr %290, align 4, !tbaa !76
  %292 = load ptr, ptr %6, align 8, !tbaa !82
  store i32 %291, ptr %292, align 4, !tbaa !76
  br label %293

293:                                              ; preds = %289, %285
  call void @llvm.lifetime.end.p0(i64 4, ptr %11) #11
  ret void
}