; Function Attrs: mustprogress nofree norecurse nosync nounwind willreturn memory(read, argmem: readwrite, inaccessiblemem: none) uwtable
define internal void @inv_predict_11(ptr noundef writeonly captures(none) initializes((0, 4)) %0, ptr noundef readonly captures(none) %1, ptr noundef readonly captures(none) %2, ptr noundef readonly captures(none) %3, ptr readnone captures(none) %4) #8 {
  %6 = load i8, ptr %1, align 1, !tbaa !59
  %7 = zext i8 %6 to i32
  %8 = load i8, ptr %2, align 1, !tbaa !59
  %9 = zext i8 %8 to i32
  %10 = sub nsw i32 %7, %9
  %11 = tail call i32 @llvm.abs.i32(i32 %10, i1 true)
  %12 = load i8, ptr %3, align 1, !tbaa !59
  %13 = zext i8 %12 to i32
  %14 = sub nsw i32 %13, %9
  %15 = tail call i32 @llvm.abs.i32(i32 %14, i1 true)
  %16 = getelementptr inbounds nuw i8, ptr %1, i64 1
  %17 = load i8, ptr %16, align 1, !tbaa !59
  %18 = zext i8 %17 to i32
  %19 = getelementptr inbounds nuw i8, ptr %2, i64 1
  %20 = load i8, ptr %19, align 1, !tbaa !59
  %21 = zext i8 %20 to i32
  %22 = sub nsw i32 %18, %21
  %23 = tail call i32 @llvm.abs.i32(i32 %22, i1 true)
  %24 = getelementptr inbounds nuw i8, ptr %3, i64 1
  %25 = load i8, ptr %24, align 1, !tbaa !59
  %26 = zext i8 %25 to i32
  %27 = sub nsw i32 %26, %21
  %28 = tail call i32 @llvm.abs.i32(i32 %27, i1 true)
  %29 = getelementptr inbounds nuw i8, ptr %1, i64 2
  %30 = load i8, ptr %29, align 1, !tbaa !59
  %31 = zext i8 %30 to i32
  %32 = getelementptr inbounds nuw i8, ptr %2, i64 2
  %33 = load i8, ptr %32, align 1, !tbaa !59
  %34 = zext i8 %33 to i32
  %35 = sub nsw i32 %31, %34
  %36 = tail call i32 @llvm.abs.i32(i32 %35, i1 true)
  %37 = getelementptr inbounds nuw i8, ptr %3, i64 2
  %38 = load i8, ptr %37, align 1, !tbaa !59
  %39 = zext i8 %38 to i32
  %40 = sub nsw i32 %39, %34
  %41 = tail call i32 @llvm.abs.i32(i32 %40, i1 true)
  %42 = getelementptr inbounds nuw i8, ptr %1, i64 3
  %43 = load i8, ptr %42, align 1, !tbaa !59
  %44 = zext i8 %43 to i32
  %45 = getelementptr inbounds nuw i8, ptr %2, i64 3
  %46 = load i8, ptr %45, align 1, !tbaa !59
  %47 = zext i8 %46 to i32
  %48 = sub nsw i32 %44, %47
  %49 = tail call i32 @llvm.abs.i32(i32 %48, i1 true)
  %50 = getelementptr inbounds nuw i8, ptr %3, i64 3
  %51 = load i8, ptr %50, align 1, !tbaa !59
  %52 = zext i8 %51 to i32
  %53 = sub nsw i32 %52, %47
  %54 = tail call i32 @llvm.abs.i32(i32 %53, i1 true)
  %55 = add nuw nsw i32 %11, %23
  %56 = add nuw nsw i32 %15, %28
  %57 = add nuw nsw i32 %55, %36
  %58 = add nuw nsw i32 %56, %41
  %59 = add nuw nsw i32 %57, %49
  %60 = add nuw nsw i32 %58, %54
  %.not = icmp samesign ugt i32 %59, %60
  %storemerge.in = select i1 %.not, ptr %1, ptr %3
  %storemerge = load i32, ptr %storemerge.in, align 4, !tbaa !59
  store i32 %storemerge, ptr %0, align 4, !tbaa !59
  ret void
}